target datalayout = "e-m:e-p270:32:32-p271:32:32-p272:64:64-i64:64-i128:128-f80:128-n8:16:32:64-S128"
target triple = "x86_64-pc-linux-gnu"

%"class.casadi::SharedObject" = type { ptr }
%"class.std::__cxx11::basic_string" = type { %"struct.std::__cxx11::basic_string<char>::_Alloc_hider", i64, %union.anon }
%"struct.std::__cxx11::basic_string<char>::_Alloc_hider" = type { ptr }
%union.anon = type { i64, [8 x i8] }
%"class.std::allocator.35" = type { i8 }
%"class.casadi::Opti" = type { %"class.casadi::SharedObject" }
%"class.casadi::OptiSol" = type { [8 x i8], %"class.casadi::OptiAdvanced" }
%"class.casadi::OptiAdvanced" = type <{ %"class.casadi::Opti", i8, i8, i8, [5 x i8] }>

@_ZTISt9exception = external constant ptr
@.str.1 = private unnamed_addr constant [6 x i8] c"] at \00", align 1
@.str.3 = private unnamed_addr constant [3 x i8] c":\0A\00", align 1
@_ZTIN6casadi15CasadiExceptionE = linkonce_odr constant { ptr, ptr, ptr } { ptr getelementptr inbounds (ptr, ptr @_ZTVN10__cxxabiv120__si_class_type_infoE, i64 2), ptr @_ZTSN6casadi15CasadiExceptionE, ptr @_ZTISt9exception }, comdat, align 8
@.str.19 = private unnamed_addr constant [23 x i8] c"Error in Opti::solve [\00", align 1
@.str.21 = private unnamed_addr constant [121 x i8] c"generated/home/dtcxzyw/WorkSpace/Projects/compilers/llvm-opt-benchmark/bench/casadi/casadi/casadi/core/optistack.cpp:165\00", align 1

; Function Attrs: mustprogress uwtable
define linkonce_odr void @_ZStplIcSt11char_traitsIcESaIcEENSt7__cxx1112basic_stringIT_T0_T1_EEOS8_PKS5_(ptr dead_on_unwind noalias writable sret(%"class.std::__cxx11::basic_string") align 8 %0, ptr noundef nonnull align 8 dereferenceable(32) %1, ptr noundef %2) #4 comdat {
  %4 = alloca ptr, align 8
  %5 = alloca ptr, align 8
  %6 = alloca ptr, align 8
  store ptr %0, ptr %4, align 8
  store ptr %1, ptr %5, align 8
  store ptr %2, ptr %6, align 8
  %7 = load ptr, ptr %5, align 8
  %8 = load ptr, ptr %6, align 8
  %9 = call noundef nonnull align 8 dereferenceable(32) ptr @_ZNSt7__cxx1112basic_stringIcSt11char_traitsIcESaIcEE6appendEPKc(ptr noundef nonnull align 8 dereferenceable(32) %7, ptr noundef %8)
  call void @_ZNSt7__cxx1112basic_stringIcSt11char_traitsIcESaIcEEC1EOS4_(ptr noundef nonnull align 8 dereferenceable(32) %0, ptr noundef nonnull align 8 dereferenceable(32) %9) #3
  ret void
}

; Function Attrs: mustprogress uwtable
define linkonce_odr void @_ZStplIcSt11char_traitsIcESaIcEENSt7__cxx1112basic_stringIT_T0_T1_EEPKS5_OS8_(ptr dead_on_unwind noalias writable sret(%"class.std::__cxx11::basic_string") align 8 %0, ptr noundef %1, ptr noundef nonnull align 8 dereferenceable(32) %2) #4 comdat {
  %4 = alloca ptr, align 8
  %5 = alloca ptr, align 8
  %6 = alloca ptr, align 8
  store ptr %0, ptr %4, align 8
  store ptr %1, ptr %5, align 8
  store ptr %2, ptr %6, align 8
  %7 = load ptr, ptr %6, align 8
  %8 = load ptr, ptr %5, align 8
  %9 = call noundef nonnull align 8 dereferenceable(32) ptr @_ZNSt7__cxx1112basic_stringIcSt11char_traitsIcESaIcEE6insertEmPKc(ptr noundef nonnull align 8 dereferenceable(32) %7, i64 noundef 0, ptr noundef %8)
  call void @_ZNSt7__cxx1112basic_stringIcSt11char_traitsIcESaIcEEC1EOS4_(ptr noundef nonnull align 8 dereferenceable(32) %0, ptr noundef nonnull align 8 dereferenceable(32) %9) #3
  ret void
}

; Function Attrs: mustprogress uwtable
define noundef ptr @_ZN6casadi4OptiptEv(ptr noundef nonnull align 8 dereferenceable(8) %0) #4 align 2 {
  %2 = alloca ptr, align 8
  store ptr %0, ptr %2, align 8
  %3 = load ptr, ptr %2, align 8
  %4 = call noundef ptr @_ZNK6casadi12SharedObjectptEv(ptr noundef nonnull align 8 dereferenceable(8) %3)
  ret ptr %4
}

; Function Attrs: mustprogress uwtable
define void @_ZN6casadi4Opti13solve_limitedEv(ptr dead_on_unwind noalias writable sret(%"class.casadi::OptiSol") align 8 %0, ptr noundef nonnull align 8 dereferenceable(8) %1) #4 align 2 personality ptr @__gxx_personality_v0 {
  %3 = alloca ptr, align 8
  %4 = alloca ptr, align 8
  %5 = alloca ptr, align 8
  %6 = alloca i32, align 4
  %7 = alloca ptr, align 8
  %8 = alloca %"class.std::__cxx11::basic_string", align 8
  %9 = alloca %"class.std::__cxx11::basic_string", align 8
  %10 = alloca %"class.std::__cxx11::basic_string", align 8
  %11 = alloca %"class.std::__cxx11::basic_string", align 8
  %12 = alloca %"class.std::__cxx11::basic_string", align 8
  %13 = alloca %"class.std::__cxx11::basic_string", align 8
  %14 = alloca %"class.std::__cxx11::basic_string", align 8
  %15 = alloca %"class.std::__cxx11::basic_string", align 8
  %16 = alloca %"class.std::allocator.35", align 1
  %17 = alloca %"class.std::__cxx11::basic_string", align 8
  %18 = alloca %"class.std::allocator.35", align 1
  %19 = alloca i1, align 1
  store ptr %0, ptr %3, align 8
  store ptr %1, ptr %4, align 8
  %20 = load ptr, ptr %4, align 8
  %21 = invoke noundef ptr @_ZN6casadi4OptiptEv(ptr noundef nonnull align 8 dereferenceable(8) %20)
          to label %22 unwind label %24

22:                                               ; preds = %2
  invoke void @_ZN6casadi8OptiNode5solveEb(ptr dead_on_unwind writable sret(%"class.casadi::OptiSol") align 8 %0, ptr noundef nonnull align 8 dereferenceable(672) %21, i1 noundef zeroext true)
          to label %23 unwind label %24

23:                                               ; preds = %22
  ret void

24:                                               ; preds = %22, %2
  %25 = landingpad { ptr, i32 }
          catch ptr @_ZTISt9exception
  %26 = extractvalue { ptr, i32 } %25, 0
  store ptr %26, ptr %5, align 8
  %27 = extractvalue { ptr, i32 } %25, 1
  store i32 %27, ptr %6, align 4
  br label %28

28:                                               ; preds = %24
  %29 = load i32, ptr %6, align 4
  %30 = call i32 @llvm.eh.typeid.for(ptr @_ZTISt9exception) #3
  %31 = icmp eq i32 %29, %30
  br i1 %31, label %32, label %105

32:                                               ; preds = %28
  %33 = load ptr, ptr %5, align 8
  %34 = call ptr @__cxa_begin_catch(ptr %33) #3
  store ptr %34, ptr %7, align 8
  store i1 true, ptr %19, align 1
  %35 = call ptr @__cxa_allocate_exception(i64 40) #3
  invoke void @_ZNK6casadi12SharedObject10class_nameB5cxx11Ev(ptr dead_on_unwind writable sret(%"class.std::__cxx11::basic_string") align 8 %13, ptr noundef nonnull align 8 dereferenceable(8) %20)
          to label %36 unwind label %51

36:                                               ; preds = %32
  invoke void @_ZStplIcSt11char_traitsIcESaIcEENSt7__cxx1112basic_stringIT_T0_T1_EEPKS5_OS8_(ptr dead_on_unwind writable sret(%"class.std::__cxx11::basic_string") align 8 %12, ptr noundef @.str.19, ptr noundef nonnull align 8 dereferenceable(32) %13)
          to label %37 unwind label %55

37:                                               ; preds = %36
  invoke void @_ZStplIcSt11char_traitsIcESaIcEENSt7__cxx1112basic_stringIT_T0_T1_EEOS8_PKS5_(ptr dead_on_unwind writable sret(%"class.std::__cxx11::basic_string") align 8 %11, ptr noundef nonnull align 8 dereferenceable(32) %12, ptr noundef @.str.1)
          to label %38 unwind label %59

38:                                               ; preds = %37
  call void @_ZNSaIcEC1Ev(ptr noundef nonnull align 1 dereferenceable(1) %16) #3
  invoke void @_ZNSt7__cxx1112basic_stringIcSt11char_traitsIcESaIcEEC2IS3_EEPKcRKS3_(ptr noundef nonnull align 8 dereferenceable(32) %15, ptr noundef @.str.21, ptr noundef nonnull align 1 dereferenceable(1) %16)
          to label %39 unwind label %63

39:                                               ; preds = %38
  invoke void @_ZN6casadi9trim_pathERKNSt7__cxx1112basic_stringIcSt11char_traitsIcESaIcEEE(ptr dead_on_unwind writable sret(%"class.std::__cxx11::basic_string") align 8 %14, ptr noundef nonnull align 8 dereferenceable(32) %15)
          to label %40 unwind label %67

40:                                               ; preds = %39
  invoke void @_ZStplIcSt11char_traitsIcESaIcEENSt7__cxx1112basic_stringIT_T0_T1_EEOS8_S9_(ptr dead_on_unwind writable sret(%"class.std::__cxx11::basic_string") align 8 %10, ptr noundef nonnull align 8 dereferenceable(32) %11, ptr noundef nonnull align 8 dereferenceable(32) %14)
          to label %41 unwind label %71

41:                                               ; preds = %40
  invoke void @_ZStplIcSt11char_traitsIcESaIcEENSt7__cxx1112basic_stringIT_T0_T1_EEOS8_PKS5_(ptr dead_on_unwind writable sret(%"class.std::__cxx11::basic_string") align 8 %9, ptr noundef nonnull align 8 dereferenceable(32) %10, ptr noundef @.str.3)
          to label %42 unwind label %75

42:                                               ; preds = %41
  %43 = load ptr, ptr %7, align 8
  %44 = load ptr, ptr %43, align 8
  %45 = getelementptr inbounds ptr, ptr %44, i64 2
  %46 = load ptr, ptr %45, align 8
  %47 = call noundef ptr %46(ptr noundef nonnull align 8 dereferenceable(8) %43) #3
  call void @_ZNSaIcEC1Ev(ptr noundef nonnull align 1 dereferenceable(1) %18) #3
  invoke void @_ZNSt7__cxx1112basic_stringIcSt11char_traitsIcESaIcEEC2IS3_EEPKcRKS3_(ptr noundef nonnull align 8 dereferenceable(32) %17, ptr noundef %47, ptr noundef nonnull align 1 dereferenceable(1) %18)
          to label %48 unwind label %79

48:                                               ; preds = %42
  invoke void @_ZStplIcSt11char_traitsIcESaIcEENSt7__cxx1112basic_stringIT_T0_T1_EEOS8_S9_(ptr dead_on_unwind writable sret(%"class.std::__cxx11::basic_string") align 8 %8, ptr noundef nonnull align 8 dereferenceable(32) %9, ptr noundef nonnull align 8 dereferenceable(32) %17)
          to label %49 unwind label %83

49:                                               ; preds = %48
  invoke void @_ZN6casadi15CasadiExceptionC2ERKNSt7__cxx1112basic_stringIcSt11char_traitsIcESaIcEEE(ptr noundef nonnull align 8 dereferenceable(40) %35, ptr noundef nonnull align 8 dereferenceable(32) %8)
          to label %50 unwind label %87

50:                                               ; preds = %49
  store i1 false, ptr %19, align 1
  invoke void @__cxa_throw(ptr %35, ptr @_ZTIN6casadi15CasadiExceptionE, ptr @_ZN6casadi15CasadiExceptionD2Ev) #15
          to label %113 unwind label %87

51:                                               ; preds = %32
  %52 = landingpad { ptr, i32 }
          cleanup
  %53 = extractvalue { ptr, i32 } %52, 0
  store ptr %53, ptr %5, align 8
  %54 = extractvalue { ptr, i32 } %52, 1
  store i32 %54, ptr %6, align 4
  br label %99

55:                                               ; preds = %36
  %56 = landingpad { ptr, i32 }
          cleanup
  %57 = extractvalue { ptr, i32 } %56, 0
  store ptr %57, ptr %5, align 8
  %58 = extractvalue { ptr, i32 } %56, 1
  store i32 %58, ptr %6, align 4
  br label %98

59:                                               ; preds = %37
  %60 = landingpad { ptr, i32 }
          cleanup
  %61 = extractvalue { ptr, i32 } %60, 0
  store ptr %61, ptr %5, align 8
  %62 = extractvalue { ptr, i32 } %60, 1
  store i32 %62, ptr %6, align 4
  br label %97

63:                                               ; preds = %38
  %64 = landingpad { ptr, i32 }
          cleanup
  %65 = extractvalue { ptr, i32 } %64, 0
  store ptr %65, ptr %5, align 8
  %66 = extractvalue { ptr, i32 } %64, 1
  store i32 %66, ptr %6, align 4
  br label %96

67:                                               ; preds = %39
  %68 = landingpad { ptr, i32 }
          cleanup
  %69 = extractvalue { ptr, i32 } %68, 0
  store ptr %69, ptr %5, align 8
  %70 = extractvalue { ptr, i32 } %68, 1
  store i32 %70, ptr %6, align 4
  br label %95

71:                                               ; preds = %40
  %72 = landingpad { ptr, i32 }
          cleanup
  %73 = extractvalue { ptr, i32 } %72, 0
  store ptr %73, ptr %5, align 8
  %74 = extractvalue { ptr, i32 } %72, 1
  store i32 %74, ptr %6, align 4
  br label %94

75:                                               ; preds = %41
  %76 = landingpad { ptr, i32 }
          cleanup
  %77 = extractvalue { ptr, i32 } %76, 0
  store ptr %77, ptr %5, align 8
  %78 = extractvalue { ptr, i32 } %76, 1
  store i32 %78, ptr %6, align 4
  br label %93

79:                                               ; preds = %42
  %80 = landingpad { ptr, i32 }
          cleanup
  %81 = extractvalue { ptr, i32 } %80, 0
  store ptr %81, ptr %5, align 8
  %82 = extractvalue { ptr, i32 } %80, 1
  store i32 %82, ptr %6, align 4
  br label %92

83:                                               ; preds = %48
  %84 = landingpad { ptr, i32 }
          cleanup
  %85 = extractvalue { ptr, i32 } %84, 0
  store ptr %85, ptr %5, align 8
  %86 = extractvalue { ptr, i32 } %84, 1
  store i32 %86, ptr %6, align 4
  br label %91

87:                                               ; preds = %50, %49
  %88 = landingpad { ptr, i32 }
          cleanup
  %89 = extractvalue { ptr, i32 } %88, 0
  store ptr %89, ptr %5, align 8
  %90 = extractvalue { ptr, i32 } %88, 1
  store i32 %90, ptr %6, align 4
  call void @_ZNSt7__cxx1112basic_stringIcSt11char_traitsIcESaIcEED1Ev(ptr noundef nonnull align 8 dereferenceable(32) %8) #3
  br label %91

91:                                               ; preds = %87, %83
  call void @_ZNSt7__cxx1112basic_stringIcSt11char_traitsIcESaIcEED1Ev(ptr noundef nonnull align 8 dereferenceable(32) %17) #3
  br label %92

92:                                               ; preds = %91, %79
  call void @_ZNSaIcED1Ev(ptr noundef nonnull align 1 dereferenceable(1) %18) #3
  call void @_ZNSt7__cxx1112basic_stringIcSt11char_traitsIcESaIcEED1Ev(ptr noundef nonnull align 8 dereferenceable(32) %9) #3
  br label %93

93:                                               ; preds = %92, %75
  call void @_ZNSt7__cxx1112basic_stringIcSt11char_traitsIcESaIcEED1Ev(ptr noundef nonnull align 8 dereferenceable(32) %10) #3
  br label %94

94:                                               ; preds = %93, %71
  call void @_ZNSt7__cxx1112basic_stringIcSt11char_traitsIcESaIcEED1Ev(ptr noundef nonnull align 8 dereferenceable(32) %14) #3
  br label %95

95:                                               ; preds = %94, %67
  call void @_ZNSt7__cxx1112basic_stringIcSt11char_traitsIcESaIcEED1Ev(ptr noundef nonnull align 8 dereferenceable(32) %15) #3
  br label %96

96:                                               ; preds = %95, %63
  call void @_ZNSaIcED1Ev(ptr noundef nonnull align 1 dereferenceable(1) %16) #3
  call void @_ZNSt7__cxx1112basic_stringIcSt11char_traitsIcESaIcEED1Ev(ptr noundef nonnull align 8 dereferenceable(32) %11) #3
  br label %97

97:                                               ; preds = %96, %59
  call void @_ZNSt7__cxx1112basic_stringIcSt11char_traitsIcESaIcEED1Ev(ptr noundef nonnull align 8 dereferenceable(32) %12) #3
  br label %98

98:                                               ; preds = %97, %55
  call void @_ZNSt7__cxx1112basic_stringIcSt11char_traitsIcESaIcEED1Ev(ptr noundef nonnull align 8 dereferenceable(32) %13) #3
  br label %99

99:                                               ; preds = %98, %51
  %100 = load i1, ptr %19, align 1
  br i1 %100, label %101, label %102

101:                                              ; preds = %99
  call void @__cxa_free_exception(ptr %35) #3
  br label %102

102:                                              ; preds = %101, %99
  invoke void @__cxa_end_catch()
          to label %103 unwind label %110

103:                                              ; preds = %102
  br label %105

104:                                              ; No predecessors!
  call void @llvm.trap()
  unreachable

105:                                              ; preds = %103, %28
  %106 = load ptr, ptr %5, align 8
  %107 = load i32, ptr %6, align 4
  %108 = insertvalue { ptr, i32 } poison, ptr %106, 0
  %109 = insertvalue { ptr, i32 } %108, i32 %107, 1
  resume { ptr, i32 } %109

110:                                              ; preds = %102
  %111 = landingpad { ptr, i32 }
          catch ptr null
  %112 = extractvalue { ptr, i32 } %111, 0
  call void @__clang_call_terminate(ptr %112) #16
  unreachable

113:                                              ; preds = %50
  unreachable
}